; Function Attrs: mustprogress nofree norecurse nosync nounwind willreturn memory(none) uwtable
define noundef zeroext i1 @_ZN15MarchingSquares12HasEdgeRootsEhi(i8 noundef zeroext %0, i32 noundef %1) local_unnamed_addr #0 align 2 {
  switch i32 %1, label %_ZN6Square15FactorEdgeIndexEiRiS0_.exit.thread.i [
    i32 0, label %_ZN6Square15FactorEdgeIndexEiRiS0_.exit.thread12.i
    i32 2, label %_ZN6Square15FactorEdgeIndexEiRiS0_.exit.thread12.i
    i32 1, label %5
    i32 3, label %5
  ]

_ZN6Square15FactorEdgeIndexEiRiS0_.exit.thread12.i: ; preds = %2, %2
  %.cmp.i.inv.i = icmp samesign ult i32 %1, 2
  %3 = select i1 %.cmp.i.inv.i, i32 0, i32 2
  br label %_ZN6Square15FactorEdgeIndexEiRiS0_.exit.thread.i

_ZN6Square15FactorEdgeIndexEiRiS0_.exit.thread.i: ; preds = %_ZN6Square15FactorEdgeIndexEiRiS0_.exit.thread12.i, %2
  %.011.i = phi i32 [ %3, %_ZN6Square15FactorEdgeIndexEiRiS0_.exit.thread12.i ], [ 0, %2 ]
  %4 = or disjoint i32 %.011.i, 1
  br label %_ZN6Square11EdgeCornersEiRiS0_.exit

5:                                                ; preds = %2, %2
  %.cmp6.i.i = icmp samesign ult i32 %1, 2
  %6 = zext i1 %.cmp6.i.i to i32
  %7 = or disjoint i32 %6, 2
  br label %_ZN6Square11EdgeCornersEiRiS0_.exit

_ZN6Square11EdgeCornersEiRiS0_.exit:              ; preds = %_ZN6Square15FactorEdgeIndexEiRiS0_.exit.thread.i, %5
  %.0 = phi i32 [ %.011.i, %_ZN6Square15FactorEdgeIndexEiRiS0_.exit.thread.i ], [ %6, %5 ]
  %storemerge.i = phi i32 [ %4, %_ZN6Square15FactorEdgeIndexEiRiS0_.exit.thread.i ], [ %7, %5 ]
  %8 = zext i8 %0 to i32
  %9 = zext nneg i32 %.0 to i64
  %10 = getelementptr inbounds nuw [4 x i32], ptr @_ZN15MarchingSquares9cornerMapE, i64 0, i64 %9
  %11 = load i32, ptr %10, align 4
  %12 = shl nuw i32 1, %11
  %13 = and i32 %12, %8
  %.not = icmp eq i32 %13, 0
  %14 = zext nneg i32 %storemerge.i to i64
  %15 = getelementptr inbounds nuw [4 x i32], ptr @_ZN15MarchingSquares9cornerMapE, i64 0, i64 %14
  %16 = load i32, ptr %15, align 4
  %17 = shl nuw i32 1, %16
  %18 = and i32 %17, %8
  %.not5 = icmp eq i32 %18, 0
  %19 = xor i1 %.not, %.not5
  ret i1 %19
}